target datalayout = "e-m:e-p270:32:32-p271:32:32-p272:64:64-i64:64-i128:128-f80:128-n8:16:32:64-S128"
target triple = "x86_64-pc-linux-gnu"

%struct.tsi_ssl_handshaker_factory = type { ptr, %struct.gpr_refcount }
%struct.gpr_refcount = type { i64 }
%"class.grpc_core::RefCountedPtr.2" = type { ptr }
%struct.tsi_ssl_server_handshaker_factory = type { %struct.tsi_ssl_handshaker_factory, ptr, ptr, i64, ptr, i64, %"class.grpc_core::RefCountedPtr.2" }

; Function Attrs: mustprogress nounwind uwtable
define internal noundef i32 @_ZL20select_protocol_listPPKhPhS0_mS0_m(ptr noundef %0, ptr noundef %1, ptr noundef %2, i64 noundef %3, ptr noundef %4, i64 noundef %5) #7 {
  %7 = alloca i32, align 4
  %8 = alloca ptr, align 8
  %9 = alloca ptr, align 8
  %10 = alloca ptr, align 8
  %11 = alloca i64, align 8
  %12 = alloca ptr, align 8
  %13 = alloca i64, align 8
  %14 = alloca ptr, align 8
  %15 = alloca i8, align 1
  %16 = alloca ptr, align 8
  %17 = alloca i8, align 1
  %18 = alloca i32, align 4
  store ptr %0, ptr %8, align 8, !tbaa !111
  store ptr %1, ptr %9, align 8, !tbaa !3
  store ptr %2, ptr %10, align 8, !tbaa !3
  store i64 %3, ptr %11, align 8, !tbaa !26
  store ptr %4, ptr %12, align 8, !tbaa !3
  store i64 %5, ptr %13, align 8, !tbaa !26
  call void @llvm.lifetime.start.p0(i64 8, ptr %14) #3
  %19 = load ptr, ptr %10, align 8, !tbaa !3
  store ptr %19, ptr %14, align 8, !tbaa !3
  br label %20

20:                                               ; preds = %87, %6
  %21 = load ptr, ptr %14, align 8, !tbaa !3
  %22 = load ptr, ptr %10, align 8, !tbaa !3
  %23 = ptrtoint ptr %21 to i64
  %24 = ptrtoint ptr %22 to i64
  %25 = sub i64 %23, %24
  %26 = trunc i64 %25 to i32
  %27 = zext i32 %26 to i64
  %28 = load i64, ptr %11, align 8, !tbaa !26
  %29 = icmp ult i64 %27, %28
  br i1 %29, label %30, label %88

30:                                               ; preds = %20
  call void @llvm.lifetime.start.p0(i64 1, ptr %15) #3
  %31 = load ptr, ptr %14, align 8, !tbaa !3
  %32 = getelementptr inbounds nuw i8, ptr %31, i32 1
  store ptr %32, ptr %14, align 8, !tbaa !3
  %33 = load i8, ptr %31, align 1, !tbaa !161
  store i8 %33, ptr %15, align 1, !tbaa !161
  call void @llvm.lifetime.start.p0(i64 8, ptr %16) #3
  %34 = load ptr, ptr %12, align 8, !tbaa !3
  store ptr %34, ptr %16, align 8, !tbaa !3
  br label %35

35:                                               ; preds = %78, %30
  %36 = load ptr, ptr %16, align 8, !tbaa !3
  %37 = load ptr, ptr %12, align 8, !tbaa !3
  %38 = icmp uge ptr %36, %37
  br i1 %38, label %39, label %47

39:                                               ; preds = %35
  %40 = load ptr, ptr %16, align 8, !tbaa !3
  %41 = load ptr, ptr %12, align 8, !tbaa !3
  %42 = ptrtoint ptr %40 to i64
  %43 = ptrtoint ptr %41 to i64
  %44 = sub i64 %42, %43
  %45 = load i64, ptr %13, align 8, !tbaa !26
  %46 = icmp ult i64 %44, %45
  br label %47

47:                                               ; preds = %39, %35
  %48 = phi i1 [ false, %35 ], [ %46, %39 ]
  br i1 %48, label %49, label %79

49:                                               ; preds = %47
  call void @llvm.lifetime.start.p0(i64 1, ptr %17) #3
  %50 = load ptr, ptr %16, align 8, !tbaa !3
  %51 = getelementptr inbounds nuw i8, ptr %50, i32 1
  store ptr %51, ptr %16, align 8, !tbaa !3
  %52 = load i8, ptr %50, align 1, !tbaa !161
  store i8 %52, ptr %17, align 1, !tbaa !161
  %53 = load i8, ptr %15, align 1, !tbaa !161
  %54 = zext i8 %53 to i32
  %55 = load i8, ptr %17, align 1, !tbaa !161
  %56 = zext i8 %55 to i32
  %57 = icmp eq i32 %54, %56
  br i1 %57, label %58, label %70

58:                                               ; preds = %49
  %59 = load ptr, ptr %14, align 8, !tbaa !3
  %60 = load ptr, ptr %16, align 8, !tbaa !3
  %61 = load i8, ptr %17, align 1, !tbaa !161
  %62 = zext i8 %61 to i64
  %63 = call i32 @memcmp(ptr noundef %59, ptr noundef %60, i64 noundef %62) #26
  %64 = icmp ne i32 %63, 0
  br i1 %64, label %70, label %65

65:                                               ; preds = %58
  %66 = load ptr, ptr %16, align 8, !tbaa !3
  %67 = load ptr, ptr %8, align 8, !tbaa !111
  store ptr %66, ptr %67, align 8, !tbaa !3
  %68 = load i8, ptr %17, align 1, !tbaa !161
  %69 = load ptr, ptr %9, align 8, !tbaa !3
  store i8 %68, ptr %69, align 1, !tbaa !161
  store i32 0, ptr %7, align 4
  store i32 1, ptr %18, align 4
  br label %76

70:                                               ; preds = %58, %49
  %71 = load i8, ptr %17, align 1, !tbaa !161
  %72 = zext i8 %71 to i32
  %73 = load ptr, ptr %16, align 8, !tbaa !3
  %74 = sext i32 %72 to i64
  %75 = getelementptr inbounds i8, ptr %73, i64 %74
  store ptr %75, ptr %16, align 8, !tbaa !3
  store i32 0, ptr %18, align 4
  br label %76

76:                                               ; preds = %70, %65
  call void @llvm.lifetime.end.p0(i64 1, ptr %17) #3
  %77 = load i32, ptr %18, align 4
  switch i32 %77, label %85 [
    i32 0, label %78
  ]

78:                                               ; preds = %76
  br label %35, !llvm.loop !411

79:                                               ; preds = %47
  %80 = load i8, ptr %15, align 1, !tbaa !161
  %81 = zext i8 %80 to i32
  %82 = load ptr, ptr %14, align 8, !tbaa !3
  %83 = sext i32 %81 to i64
  %84 = getelementptr inbounds i8, ptr %82, i64 %83
  store ptr %84, ptr %14, align 8, !tbaa !3
  store i32 0, ptr %18, align 4
  br label %85

85:                                               ; preds = %79, %76
  call void @llvm.lifetime.end.p0(i64 8, ptr %16) #3
  call void @llvm.lifetime.end.p0(i64 1, ptr %15) #3
  %86 = load i32, ptr %18, align 4
  switch i32 %86, label %89 [
    i32 0, label %87
  ]

87:                                               ; preds = %85
  br label %20, !llvm.loop !412

88:                                               ; preds = %20
  store i32 3, ptr %7, align 4
  store i32 1, ptr %18, align 4
  br label %89

89:                                               ; preds = %88, %85
  call void @llvm.lifetime.end.p0(i64 8, ptr %14) #3
  %90 = load i32, ptr %7, align 4
  ret i32 %90
}

; Function Attrs: mustprogress nounwind uwtable
define internal noundef i32 @_ZL39server_handshaker_factory_alpn_callbackP6ssl_stPPKhPhS2_jPv(ptr noundef %0, ptr noundef %1, ptr noundef %2, ptr noundef %3, i32 noundef %4, ptr noundef %5) #7 {
  %7 = alloca ptr, align 8
  %8 = alloca ptr, align 8
  %9 = alloca ptr, align 8
  %10 = alloca ptr, align 8
  %11 = alloca i32, align 4
  %12 = alloca ptr, align 8
  %13 = alloca ptr, align 8
  store ptr %0, ptr %7, align 8, !tbaa !86
  store ptr %1, ptr %8, align 8, !tbaa !111
  store ptr %2, ptr %9, align 8, !tbaa !3
  store ptr %3, ptr %10, align 8, !tbaa !3
  store i32 %4, ptr %11, align 4, !tbaa !20
  store ptr %5, ptr %12, align 8, !tbaa !147
  call void @llvm.lifetime.start.p0(i64 8, ptr %13) #3
  %14 = load ptr, ptr %12, align 8, !tbaa !147
  store ptr %14, ptr %13, align 8, !tbaa !103
  %15 = load ptr, ptr %8, align 8, !tbaa !111
  %16 = load ptr, ptr %9, align 8, !tbaa !3
  %17 = load ptr, ptr %10, align 8, !tbaa !3
  %18 = load i32, ptr %11, align 4, !tbaa !20
  %19 = zext i32 %18 to i64
  %20 = load ptr, ptr %13, align 8, !tbaa !103
  %21 = getelementptr inbounds nuw %struct.tsi_ssl_server_handshaker_factory, ptr %20, i32 0, i32 4
  %22 = load ptr, ptr %21, align 8, !tbaa !203
  %23 = load ptr, ptr %13, align 8, !tbaa !103
  %24 = getelementptr inbounds nuw %struct.tsi_ssl_server_handshaker_factory, ptr %23, i32 0, i32 5
  %25 = load i64, ptr %24, align 8, !tbaa !204
  %26 = call noundef i32 @_ZL20select_protocol_listPPKhPhS0_mS0_m(ptr noundef %15, ptr noundef %16, ptr noundef %17, i64 noundef %19, ptr noundef %22, i64 noundef %25)
  call void @llvm.lifetime.end.p0(i64 8, ptr %13) #3
  ret i32 %26
}