; Function Attrs: mustprogress nofree nounwind memory(read, argmem: readwrite, inaccessiblemem: none) uwtable
define internal noundef range(i32 0, 4) i32 @_ZL39server_handshaker_factory_alpn_callbackP6ssl_stPPKhPhS2_jPv(ptr readnone captures(none) %0, ptr noundef writeonly captures(none) %1, ptr noundef writeonly captures(none) %2, ptr noundef %3, i32 noundef %4, ptr noundef readonly captures(none) %5) #12 {
  %7 = zext i32 %4 to i64
  %8 = getelementptr inbounds nuw i8, ptr %5, i64 40
  %9 = load ptr, ptr %8, align 8, !tbaa !185
  %10 = getelementptr inbounds nuw i8, ptr %5, i64 48
  %11 = load i64, ptr %10, align 8, !tbaa !186
  %12 = ptrtoint ptr %3 to i64
  %.not.i = icmp eq i32 %4, 0
  br i1 %.not.i, label %_ZL20select_protocol_listPPKhPhS0_mS0_m.exit, label %.lr.ph48.i

.lr.ph48.i:                                       ; preds = %6
  %13 = ptrtoint ptr %9 to i64
  %.not50.i = icmp eq i64 %11, 0
  br i1 %.not50.i, label %_ZL20select_protocol_listPPKhPhS0_mS0_m.exit, label %.lr.ph.us.i

.lr.ph.us.i:                                      ; preds = %.lr.ph48.i, %._crit_edge.us.i
  %.03246.us.i = phi ptr [ %28, %._crit_edge.us.i ], [ %3, %.lr.ph48.i ]
  %14 = getelementptr inbounds nuw i8, ptr %.03246.us.i, i64 1
  %15 = load i8, ptr %.03246.us.i, align 1, !tbaa !57
  %16 = zext i8 %15 to i64
  br label %17

17:                                               ; preds = %22, %.lr.ph.us.i
  %.03045.us.i = phi ptr [ %9, %.lr.ph.us.i ], [ %24, %22 ]
  %18 = getelementptr inbounds nuw i8, ptr %.03045.us.i, i64 1
  %19 = load i8, ptr %.03045.us.i, align 1, !tbaa !57
  %20 = icmp eq i8 %15, %19
  br i1 %20, label %21, label %22

21:                                               ; preds = %17
  %bcmp.us.i = tail call i32 @bcmp(ptr nonnull %14, ptr nonnull %18, i64 %16)
  %.not35.us.i = icmp eq i32 %bcmp.us.i, 0
  br i1 %.not35.us.i, label %.thread41.i, label %22

22:                                               ; preds = %21, %17
  %23 = zext i8 %19 to i64
  %24 = getelementptr inbounds nuw i8, ptr %18, i64 %23
  %.not.us.i = icmp uge ptr %24, %9
  %25 = ptrtoint ptr %24 to i64
  %26 = sub i64 %25, %13
  %27 = icmp ult i64 %26, %11
  %or.cond.us.i = and i1 %.not.us.i, %27
  br i1 %or.cond.us.i, label %17, label %._crit_edge.us.i, !llvm.loop !139

._crit_edge.us.i:                                 ; preds = %22
  %28 = getelementptr inbounds nuw i8, ptr %14, i64 %16
  %29 = ptrtoint ptr %28 to i64
  %30 = sub i64 %29, %12
  %31 = and i64 %30, 4294967295
  %32 = icmp samesign ult i64 %31, %7
  br i1 %32, label %.lr.ph.us.i, label %_ZL20select_protocol_listPPKhPhS0_mS0_m.exit, !llvm.loop !140

.thread41.i:                                      ; preds = %21
  store ptr %18, ptr %1, align 8, !tbaa !23
  store i8 %15, ptr %2, align 1, !tbaa !57
  br label %_ZL20select_protocol_listPPKhPhS0_mS0_m.exit

_ZL20select_protocol_listPPKhPhS0_mS0_m.exit:     ; preds = %._crit_edge.us.i, %6, %.lr.ph48.i, %.thread41.i
  %.4.i = phi i32 [ 0, %.thread41.i ], [ 3, %6 ], [ 3, %.lr.ph48.i ], [ 3, %._crit_edge.us.i ]
  ret i32 %.4.i
}